target datalayout = "e-m:e-p270:32:32-p271:32:32-p272:64:64-i64:64-i128:128-f80:128-n8:16:32:64-S128"
target triple = "x86_64-pc-linux-gnu"

; Function Attrs: nounwind sspstrong uwtable
define hidden i32 @rb_insn_unified_local_var_level(i64 noundef %0) #0 {
  %2 = alloca i32, align 4
  %3 = alloca i64, align 8
  store i64 %0, ptr %3, align 8, !tbaa !7
  %4 = load i64, ptr %3, align 8, !tbaa !7
  switch i64 %4, label %5 [
    i64 104, label %6
    i64 105, label %7
    i64 106, label %8
    i64 107, label %9
    i64 108, label %10
    i64 109, label %11
  ]

5:                                                ; preds = %1
  store i32 -1, ptr %2, align 4
  br label %12

6:                                                ; preds = %1
  store i32 0, ptr %2, align 4
  br label %12

7:                                                ; preds = %1
  store i32 1, ptr %2, align 4
  br label %12

8:                                                ; preds = %1
  store i32 0, ptr %2, align 4
  br label %12

9:                                                ; preds = %1
  store i32 1, ptr %2, align 4
  br label %12

10:                                               ; preds = %1
  store i32 1, ptr %2, align 4
  br label %12

11:                                               ; preds = %1
  store i32 3, ptr %2, align 4
  br label %12

12:                                               ; preds = %11, %10, %9, %8, %7, %6, %5
  %13 = load i32, ptr %2, align 4
  ret i32 %13
}