; Function Attrs: mustprogress nofree norecurse nosync nounwind sspstrong willreturn memory(none) uwtable
define hidden range(i32 -1, 4) i32 @rb_insn_unified_local_var_level(i64 noundef %0) local_unnamed_addr #0 {
  %switch.tableidx = add i64 %0, -104
  %2 = icmp ult i64 %switch.tableidx, 6
  br i1 %2, label %switch.lookup, label %3

switch.lookup:                                    ; preds = %1
  %switch.gep = getelementptr inbounds nuw [6 x i32], ptr @switch.table.rb_insn_unified_local_var_level, i64 0, i64 %switch.tableidx
  %switch.load = load i32, ptr %switch.gep, align 4
  br label %3

3:                                                ; preds = %switch.lookup, %1
  %.0 = phi i32 [ -1, %1 ], [ %switch.load, %switch.lookup ]
  ret i32 %.0
}